target datalayout = "e-m:e-p270:32:32-p271:32:32-p272:64:64-i64:64-i128:128-f80:128-n8:16:32:64-S128"
target triple = "x86_64-pc-linux-gnu"

@fp_cairo_surface_flush = internal global ptr null, align 8
@fp_cairo_image_surface_get_data = internal global ptr null, align 8
@fp_cairo_image_surface_get_stride = internal global ptr null, align 8
@surface = internal global ptr null, align 8

; Function Attrs: nounwind uwtable
define internal i32 @gtk3_copy_image(ptr noundef %0, i32 noundef %1, i32 noundef %2) #0 {
  %4 = alloca ptr, align 8
  %5 = alloca i32, align 4
  %6 = alloca i32, align 4
  %7 = alloca i32, align 4
  %8 = alloca i32, align 4
  %9 = alloca ptr, align 8
  %10 = alloca i32, align 4
  %11 = alloca i32, align 4
  %12 = alloca i32, align 4
  %13 = alloca i32, align 4
  %14 = alloca i32, align 4
  %15 = alloca i32, align 4
  store ptr %0, ptr %4, align 8
  store i32 %1, ptr %5, align 4
  store i32 %2, ptr %6, align 4
  %16 = load ptr, ptr @fp_cairo_surface_flush, align 8
  %17 = load ptr, ptr @surface, align 8
  call void %16(ptr noundef %17)
  %18 = load ptr, ptr @fp_cairo_image_surface_get_data, align 8
  %19 = load ptr, ptr @surface, align 8
  %20 = call ptr %18(ptr noundef %19)
  store ptr %20, ptr %9, align 8
  %21 = load ptr, ptr @fp_cairo_image_surface_get_stride, align 8
  %22 = load ptr, ptr @surface, align 8
  %23 = call i32 %21(ptr noundef %22)
  store i32 %23, ptr %10, align 4
  %24 = load i32, ptr %10, align 4
  %25 = load i32, ptr %5, align 4
  %26 = mul nsw i32 %25, 4
  %27 = sub nsw i32 %24, %26
  store i32 %27, ptr %11, align 4
  %28 = load i32, ptr %10, align 4
  %29 = icmp sgt i32 %28, 0
  br i1 %29, label %30, label %84

30:                                               ; preds = %3
  %31 = load i32, ptr %11, align 4
  %32 = icmp sge i32 %31, 0
  br i1 %32, label %33, label %84

33:                                               ; preds = %30
  store i32 0, ptr %7, align 4
  br label %34

34:                                               ; preds = %80, %33
  %35 = load i32, ptr %7, align 4
  %36 = load i32, ptr %6, align 4
  %37 = icmp slt i32 %35, %36
  br i1 %37, label %38, label %83

38:                                               ; preds = %34
  store i32 0, ptr %8, align 4
  br label %39

39:                                               ; preds = %72, %38
  %40 = load i32, ptr %8, align 4
  %41 = load i32, ptr %5, align 4
  %42 = icmp slt i32 %40, %41
  br i1 %42, label %43, label %75

43:                                               ; preds = %39
  %44 = load ptr, ptr %9, align 8
  %45 = getelementptr inbounds i8, ptr %44, i32 1
  store ptr %45, ptr %9, align 8
  %46 = load i8, ptr %44, align 1
  %47 = zext i8 %46 to i32
  store i32 %47, ptr %12, align 4
  %48 = load ptr, ptr %9, align 8
  %49 = getelementptr inbounds i8, ptr %48, i32 1
  store ptr %49, ptr %9, align 8
  %50 = load i8, ptr %48, align 1
  %51 = zext i8 %50 to i32
  store i32 %51, ptr %13, align 4
  %52 = load ptr, ptr %9, align 8
  %53 = getelementptr inbounds i8, ptr %52, i32 1
  store ptr %53, ptr %9, align 8
  %54 = load i8, ptr %52, align 1
  %55 = zext i8 %54 to i32
  store i32 %55, ptr %14, align 4
  %56 = load ptr, ptr %9, align 8
  %57 = getelementptr inbounds i8, ptr %56, i32 1
  store ptr %57, ptr %9, align 8
  %58 = load i8, ptr %56, align 1
  %59 = zext i8 %58 to i32
  store i32 %59, ptr %15, align 4
  %60 = load i32, ptr %15, align 4
  %61 = shl i32 %60, 24
  %62 = load i32, ptr %14, align 4
  %63 = shl i32 %62, 16
  %64 = or i32 %61, %63
  %65 = load i32, ptr %13, align 4
  %66 = shl i32 %65, 8
  %67 = or i32 %64, %66
  %68 = load i32, ptr %12, align 4
  %69 = or i32 %67, %68
  %70 = load ptr, ptr %4, align 8
  %71 = getelementptr inbounds i32, ptr %70, i32 1
  store ptr %71, ptr %4, align 8
  store i32 %69, ptr %70, align 4
  br label %72

72:                                               ; preds = %43
  %73 = load i32, ptr %8, align 4
  %74 = add nsw i32 %73, 1
  store i32 %74, ptr %8, align 4
  br label %39, !llvm.loop !9

75:                                               ; preds = %39
  %76 = load i32, ptr %11, align 4
  %77 = load ptr, ptr %9, align 8
  %78 = sext i32 %76 to i64
  %79 = getelementptr inbounds i8, ptr %77, i64 %78
  store ptr %79, ptr %9, align 8
  br label %80

80:                                               ; preds = %75
  %81 = load i32, ptr %7, align 4
  %82 = add nsw i32 %81, 1
  store i32 %82, ptr %7, align 4
  br label %34, !llvm.loop !10

83:                                               ; preds = %34
  br label %84

84:                                               ; preds = %83, %30, %3
  ret i32 3
}