; Function Attrs: nounwind uwtable
define internal noundef i32 @gtk3_copy_image(ptr nocapture noundef writeonly %0, i32 noundef %1, i32 noundef %2) #0 {
  %4 = load ptr, ptr @fp_cairo_surface_flush, align 8
  %5 = load ptr, ptr @surface, align 8
  tail call void %4(ptr noundef %5) #19
  %6 = load ptr, ptr @fp_cairo_image_surface_get_data, align 8
  %7 = load ptr, ptr @surface, align 8
  %8 = tail call ptr %6(ptr noundef %7) #19
  %9 = load ptr, ptr @fp_cairo_image_surface_get_stride, align 8
  %10 = load ptr, ptr @surface, align 8
  %11 = tail call i32 %9(ptr noundef %10) #19
  %12 = shl nsw i32 %1, 2
  %13 = sub nsw i32 %11, %12
  %14 = icmp sgt i32 %11, 0
  %15 = icmp sgt i32 %13, -1
  %or.cond = select i1 %14, i1 %15, i1 false
  %16 = icmp sgt i32 %2, 0
  %or.cond34 = and i1 %or.cond, %16
  br i1 %or.cond34, label %.preheader.lr.ph, label %.loopexit

.preheader.lr.ph:                                 ; preds = %3
  %17 = icmp sgt i32 %1, 0
  %18 = zext nneg i32 %13 to i64
  br i1 %17, label %.preheader.us, label %.loopexit

.preheader.us:                                    ; preds = %.preheader.lr.ph, %._crit_edge.us
  %.033.us = phi ptr [ %22, %._crit_edge.us ], [ %0, %.preheader.lr.ph ]
  %.02132.us = phi i32 [ %25, %._crit_edge.us ], [ 0, %.preheader.lr.ph ]
  %.02331.us = phi ptr [ %24, %._crit_edge.us ], [ %8, %.preheader.lr.ph ]
  br label %19

19:                                               ; preds = %.preheader.us, %19
  %.129.us = phi ptr [ %.033.us, %.preheader.us ], [ %22, %19 ]
  %.02228.us = phi i32 [ 0, %.preheader.us ], [ %23, %19 ]
  %.12427.us = phi ptr [ %.02331.us, %.preheader.us ], [ %21, %19 ]
  %20 = load i32, ptr %.12427.us, align 1
  %21 = getelementptr inbounds i8, ptr %.12427.us, i64 4
  %22 = getelementptr inbounds i8, ptr %.129.us, i64 4
  store i32 %20, ptr %.129.us, align 4
  %23 = add nuw nsw i32 %.02228.us, 1
  %exitcond.not = icmp eq i32 %23, %1
  br i1 %exitcond.not, label %._crit_edge.us, label %19, !llvm.loop !9

._crit_edge.us:                                   ; preds = %19
  %24 = getelementptr inbounds i8, ptr %21, i64 %18
  %25 = add nuw nsw i32 %.02132.us, 1
  %exitcond37.not = icmp eq i32 %25, %2
  br i1 %exitcond37.not, label %.loopexit, label %.preheader.us, !llvm.loop !10

.loopexit:                                        ; preds = %._crit_edge.us, %.preheader.lr.ph, %3
  ret i32 3
}